; Function Attrs: nounwind uwtable
define ptr @l_Lean_Meta_mkCongrSimpCore_x3f_mkProof_go___lambda__2(ptr noundef %0, ptr noundef %1, ptr noundef %2, ptr noundef %3, ptr noundef %4, ptr noundef %5, ptr noundef %6, ptr noundef %7, ptr noundef %8, ptr noundef %9, ptr noundef %10, ptr noundef %11) #1 {
  tail call void @lean_inc_heartbeat() #7
  %13 = tail call noalias ptr @mi_malloc_small(i64 noundef 72) #7
  %14 = icmp eq ptr %13, null
  br i1 %14, label %15, label %lean_alloc_closure.exit

15:                                               ; preds = %12
  tail call void @lean_internal_panic_out_of_memory() #8
  unreachable

lean_alloc_closure.exit:                          ; preds = %12
  %16 = getelementptr inbounds nuw i8, ptr %13, i64 4
  store i32 1, ptr %13, align 4, !tbaa !4
  store i32 -184549304, ptr %16, align 4
  %17 = getelementptr inbounds nuw i8, ptr %13, i64 8
  store ptr @l_Lean_Meta_mkCongrSimpCore_x3f_mkProof_go___lambda__1___boxed, ptr %17, align 8, !tbaa !10
  %18 = getelementptr inbounds nuw i8, ptr %13, i64 16
  store i16 13, ptr %18, align 8, !tbaa !12
  %19 = getelementptr inbounds nuw i8, ptr %13, i64 18
  store i16 6, ptr %19, align 2, !tbaa !12
  %20 = getelementptr inbounds nuw i8, ptr %13, i64 24
  store ptr %0, ptr %20, align 8, !tbaa !10
  %21 = getelementptr inbounds nuw i8, ptr %13, i64 32
  store ptr %5, ptr %21, align 8, !tbaa !10
  %22 = getelementptr inbounds nuw i8, ptr %13, i64 40
  store ptr %1, ptr %22, align 8, !tbaa !10
  %23 = getelementptr inbounds nuw i8, ptr %13, i64 48
  store ptr %2, ptr %23, align 8, !tbaa !10
  %24 = getelementptr inbounds nuw i8, ptr %13, i64 56
  store ptr %3, ptr %24, align 8, !tbaa !10
  %25 = getelementptr inbounds nuw i8, ptr %13, i64 64
  store ptr %4, ptr %25, align 8, !tbaa !10
  tail call void @lean_inc_heartbeat() #7
  %26 = tail call noalias ptr @mi_malloc_small(i64 noundef 32) #7
  %27 = icmp eq ptr %26, null
  br i1 %27, label %28, label %l___private_Lean_Meta_CongrTheorems_0__Lean_Meta_withNext___rarg.exit

28:                                               ; preds = %lean_alloc_closure.exit
  tail call void @lean_internal_panic_out_of_memory() #8
  unreachable

l___private_Lean_Meta_CongrTheorems_0__Lean_Meta_withNext___rarg.exit: ; preds = %lean_alloc_closure.exit
  %29 = getelementptr inbounds nuw i8, ptr %26, i64 4
  store i32 1, ptr %26, align 4, !tbaa !4
  store i32 -184549344, ptr %29, align 4
  %30 = getelementptr inbounds nuw i8, ptr %26, i64 8
  store ptr @l___private_Lean_Meta_CongrTheorems_0__Lean_Meta_withNext___rarg___lambda__1___boxed, ptr %30, align 8, !tbaa !10
  %31 = getelementptr inbounds nuw i8, ptr %26, i64 16
  store i16 8, ptr %31, align 8, !tbaa !12
  %32 = getelementptr inbounds nuw i8, ptr %26, i64 18
  store i16 1, ptr %32, align 2, !tbaa !12
  %33 = getelementptr inbounds nuw i8, ptr %26, i64 24
  store ptr %13, ptr %33, align 8, !tbaa !10
  %34 = load ptr, ptr @l_Lean_Meta_mkHCongrWithArity_mkProof___closed__5, align 8, !tbaa !10
  %35 = tail call ptr @l_Lean_Meta_forallBoundedTelescope___at_Lean_Meta_arrowDomainsN___spec__6___rarg(ptr noundef %6, ptr noundef %34, ptr noundef nonnull %26, i8 noundef zeroext 1, ptr noundef %7, ptr noundef %8, ptr noundef %9, ptr noundef %10, ptr noundef %11) #7
  ret ptr %35
}